target datalayout = "e-m:e-p270:32:32-p271:32:32-p272:64:64-i64:64-i128:128-f80:128-n8:16:32:64-S128"
target triple = "x86_64-pc-linux-gnu"

%"class.llvm::LLT" = type { i64 }
%"class.llvm::TypeSize" = type { %"class.llvm::details::FixedOrScalableQuantity.base", [7 x i8] }
%"class.llvm::details::FixedOrScalableQuantity.base" = type <{ i64, i8 }>
%"class.llvm::ElementCount" = type { %"class.llvm::details::FixedOrScalableQuantity.base.291", [3 x i8] }
%"class.llvm::details::FixedOrScalableQuantity.base.291" = type <{ i32, i8 }>
%"class.llvm::details::FixedOrScalableQuantity" = type <{ i64, i8, [7 x i8] }>
%"class.llvm::details::FixedOrScalableQuantity.290" = type <{ i32, i8, [3 x i8] }>

@_ZN4llvm3LLT19ScalarSizeFieldInfoE = linkonce_odr constant [2 x i32] [i32 32, i32 0], comdat, align 4
@_ZN4llvm3LLT23VectorElementsFieldInfoE = linkonce_odr constant [2 x i32] [i32 16, i32 0], comdat, align 4
@_ZN4llvm3LLT19VectorSizeFieldInfoE = linkonce_odr constant [2 x i32] [i32 32, i32 16], comdat, align 4
@_ZN4llvm3LLT23VectorScalableFieldInfoE = linkonce_odr constant [2 x i32] [i32 1, i32 48], comdat, align 4
@_ZN4llvm3LLT30PointerVectorElementsFieldInfoE = linkonce_odr constant [2 x i32] [i32 16, i32 0], comdat, align 4
@_ZN4llvm3LLT26PointerVectorSizeFieldInfoE = linkonce_odr constant [2 x i32] [i32 16, i32 16], comdat, align 4
@_ZN4llvm3LLT30PointerVectorScalableFieldInfoE = linkonce_odr constant [2 x i32] [i32 1, i32 56], comdat, align 4
@_ZN4llvm3LLT20PointerSizeFieldInfoE = linkonce_odr constant [2 x i32] [i32 16, i32 0], comdat, align 4

; Function Attrs: mustprogress nounwind uwtable
define linkonce_odr hidden void @_ZN4llvm7details23FixedOrScalableQuantityINS_12ElementCountEjEC2Ejb(ptr noundef nonnull align 4 dereferenceable(5) %0, i32 noundef %1, i1 noundef zeroext %2) unnamed_addr #0 comdat align 2 {
  %4 = alloca ptr, align 8
  %5 = alloca i32, align 4
  %6 = alloca i8, align 1
  store ptr %0, ptr %4, align 8
  store i32 %1, ptr %5, align 4
  %7 = zext i1 %2 to i8
  store i8 %7, ptr %6, align 1
  %8 = load ptr, ptr %4, align 8
  %9 = getelementptr inbounds nuw %"class.llvm::details::FixedOrScalableQuantity.290", ptr %8, i32 0, i32 0
  %10 = load i32, ptr %5, align 4
  store i32 %10, ptr %9, align 4
  %11 = getelementptr inbounds nuw %"class.llvm::details::FixedOrScalableQuantity.290", ptr %8, i32 0, i32 1
  %12 = load i8, ptr %6, align 1
  %13 = trunc i8 %12 to i1
  %14 = zext i1 %13 to i8
  store i8 %14, ptr %11, align 4
  ret void
}

; Function Attrs: mustprogress nounwind uwtable
define linkonce_odr hidden void @_ZN4llvm12ElementCountC2Ejb(ptr noundef nonnull align 4 dereferenceable(5) %0, i32 noundef %1, i1 noundef zeroext %2) unnamed_addr #0 comdat align 2 {
  %4 = alloca ptr, align 8
  %5 = alloca i32, align 4
  %6 = alloca i8, align 1
  store ptr %0, ptr %4, align 8
  store i32 %1, ptr %5, align 4
  %7 = zext i1 %2 to i8
  store i8 %7, ptr %6, align 1
  %8 = load ptr, ptr %4, align 8
  %9 = load i32, ptr %5, align 4
  %10 = load i8, ptr %6, align 1
  %11 = trunc i8 %10 to i1
  call void @_ZN4llvm7details23FixedOrScalableQuantityINS_12ElementCountEjEC2Ejb(ptr noundef nonnull align 4 dereferenceable(5) %8, i32 noundef %9, i1 noundef zeroext %11)
  ret void
}

; Function Attrs: mustprogress nounwind uwtable
define linkonce_odr hidden noundef i64 @_ZN4llvm3LLT7getMaskEPKi(ptr noundef %0) #0 comdat align 2 {
  %2 = alloca ptr, align 8
  %3 = alloca i32, align 4
  store ptr %0, ptr %2, align 8
  %4 = load ptr, ptr %2, align 8
  %5 = getelementptr inbounds i32, ptr %4, i64 0
  %6 = load i32, ptr %5, align 4
  store i32 %6, ptr %3, align 4
  %7 = load i32, ptr %3, align 4
  %8 = zext i32 %7 to i64
  %9 = shl i64 1, %8
  %10 = sub i64 %9, 1
  ret i64 %10
}

; Function Attrs: mustprogress nounwind uwtable
define linkonce_odr hidden void @_ZN4llvm7details23FixedOrScalableQuantityINS_8TypeSizeEmEC2Emb(ptr noundef nonnull align 8 dereferenceable(9) %0, i64 noundef %1, i1 noundef zeroext %2) unnamed_addr #0 comdat align 2 {
  %4 = alloca ptr, align 8
  %5 = alloca i64, align 8
  %6 = alloca i8, align 1
  store ptr %0, ptr %4, align 8
  store i64 %1, ptr %5, align 8
  %7 = zext i1 %2 to i8
  store i8 %7, ptr %6, align 1
  %8 = load ptr, ptr %4, align 8
  %9 = getelementptr inbounds nuw %"class.llvm::details::FixedOrScalableQuantity", ptr %8, i32 0, i32 0
  %10 = load i64, ptr %5, align 8
  store i64 %10, ptr %9, align 8
  %11 = getelementptr inbounds nuw %"class.llvm::details::FixedOrScalableQuantity", ptr %8, i32 0, i32 1
  %12 = load i8, ptr %6, align 1
  %13 = trunc i8 %12 to i1
  %14 = zext i1 %13 to i8
  store i8 %14, ptr %11, align 8
  ret void
}

; Function Attrs: mustprogress nounwind uwtable
define linkonce_odr hidden i64 @_ZN4llvm12ElementCount3getEjb(i32 noundef %0, i1 noundef zeroext %1) #0 comdat align 2 {
  %3 = alloca %"class.llvm::ElementCount", align 4
  %4 = alloca i32, align 4
  %5 = alloca i8, align 1
  store i32 %0, ptr %4, align 4
  %6 = zext i1 %1 to i8
  store i8 %6, ptr %5, align 1
  %7 = load i32, ptr %4, align 4
  %8 = load i8, ptr %5, align 1
  %9 = trunc i8 %8 to i1
  call void @_ZN4llvm12ElementCountC2Ejb(ptr noundef nonnull align 4 dereferenceable(5) %3, i32 noundef %7, i1 noundef zeroext %9)
  %10 = load i64, ptr %3, align 4
  ret i64 %10
}

; Function Attrs: mustprogress nounwind uwtable
define linkonce_odr hidden noundef zeroext i1 @_ZNK4llvm3LLT10isScalableEv(ptr noundef nonnull align 8 dereferenceable(8) %0) #0 comdat align 2 {
  %2 = alloca ptr, align 8
  store ptr %0, ptr %2, align 8
  %3 = load ptr, ptr %2, align 8
  %4 = load i64, ptr %3, align 8
  %5 = lshr i64 %4, 1
  %6 = and i64 %5, 1
  %7 = icmp ne i64 %6, 0
  br i1 %7, label %8, label %10

8:                                                ; preds = %1
  %9 = call noundef i64 @_ZNK4llvm3LLT13getFieldValueEPKi(ptr noundef nonnull align 8 dereferenceable(8) %3, ptr noundef @_ZN4llvm3LLT30PointerVectorScalableFieldInfoE)
  br label %12

10:                                               ; preds = %1
  %11 = call noundef i64 @_ZNK4llvm3LLT13getFieldValueEPKi(ptr noundef nonnull align 8 dereferenceable(8) %3, ptr noundef @_ZN4llvm3LLT23VectorScalableFieldInfoE)
  br label %12

12:                                               ; preds = %10, %8
  %13 = phi i64 [ %9, %8 ], [ %11, %10 ]
  %14 = icmp ne i64 %13, 0
  ret i1 %14
}

; Function Attrs: mustprogress nounwind uwtable
define linkonce_odr hidden noundef i64 @_ZNK4llvm3LLT13getFieldValueEPKi(ptr noundef nonnull align 8 dereferenceable(8) %0, ptr noundef %1) #0 comdat align 2 {
  %3 = alloca ptr, align 8
  %4 = alloca ptr, align 8
  store ptr %0, ptr %3, align 8
  store ptr %1, ptr %4, align 8
  %5 = load ptr, ptr %3, align 8
  %6 = load ptr, ptr %4, align 8
  %7 = call noundef i64 @_ZN4llvm3LLT7getMaskEPKi(ptr noundef %6)
  %8 = load i64, ptr %5, align 8
  %9 = lshr i64 %8, 3
  %10 = load ptr, ptr %4, align 8
  %11 = getelementptr inbounds i32, ptr %10, i64 1
  %12 = load i32, ptr %11, align 4
  %13 = zext i32 %12 to i64
  %14 = lshr i64 %9, %13
  %15 = and i64 %7, %14
  ret i64 %15
}

; Function Attrs: mustprogress nounwind uwtable
define linkonce_odr hidden noundef zeroext i1 @_ZNK4llvm3LLT7isValidEv(ptr noundef nonnull align 8 dereferenceable(8) %0) #0 comdat align 2 {
  %2 = alloca ptr, align 8
  store ptr %0, ptr %2, align 8
  %3 = load ptr, ptr %2, align 8
  %4 = load i64, ptr %3, align 8
  %5 = and i64 %4, 1
  %6 = icmp ne i64 %5, 0
  br i1 %6, label %11, label %7

7:                                                ; preds = %1
  %8 = load i64, ptr %3, align 8
  %9 = lshr i64 %8, 3
  %10 = icmp ne i64 %9, 0
  br label %11

11:                                               ; preds = %7, %1
  %12 = phi i1 [ true, %1 ], [ %10, %7 ]
  ret i1 %12
}

; Function Attrs: mustprogress nounwind uwtable
define linkonce_odr hidden void @_ZN4llvm8TypeSizeC2Emb(ptr noundef nonnull align 8 dereferenceable(9) %0, i64 noundef %1, i1 noundef zeroext %2) unnamed_addr #0 comdat align 2 {
  %4 = alloca ptr, align 8
  %5 = alloca i64, align 8
  %6 = alloca i8, align 1
  store ptr %0, ptr %4, align 8
  store i64 %1, ptr %5, align 8
  %7 = zext i1 %2 to i8
  store i8 %7, ptr %6, align 1
  %8 = load ptr, ptr %4, align 8
  %9 = load i64, ptr %5, align 8
  %10 = load i8, ptr %6, align 1
  %11 = trunc i8 %10 to i1
  call void @_ZN4llvm7details23FixedOrScalableQuantityINS_8TypeSizeEmEC2Emb(ptr noundef nonnull align 8 dereferenceable(9) %8, i64 noundef %9, i1 noundef zeroext %11)
  ret void
}

; Function Attrs: mustprogress nounwind uwtable
define linkonce_odr hidden noundef zeroext i1 @_ZNK4llvm7details23FixedOrScalableQuantityINS_12ElementCountEjE10isScalableEv(ptr noundef nonnull align 4 dereferenceable(5) %0) #0 comdat align 2 {
  %2 = alloca ptr, align 8
  store ptr %0, ptr %2, align 8
  %3 = load ptr, ptr %2, align 8
  %4 = getelementptr inbounds nuw %"class.llvm::details::FixedOrScalableQuantity.290", ptr %3, i32 0, i32 1
  %5 = load i8, ptr %4, align 4
  %6 = trunc i8 %5 to i1
  ret i1 %6
}

; Function Attrs: mustprogress nounwind uwtable
define linkonce_odr hidden noundef i32 @_ZNK4llvm7details23FixedOrScalableQuantityINS_12ElementCountEjE16getKnownMinValueEv(ptr noundef nonnull align 4 dereferenceable(5) %0) #0 comdat align 2 {
  %2 = alloca ptr, align 8
  store ptr %0, ptr %2, align 8
  %3 = load ptr, ptr %2, align 8
  %4 = getelementptr inbounds nuw %"class.llvm::details::FixedOrScalableQuantity.290", ptr %3, i32 0, i32 0
  %5 = load i32, ptr %4, align 4
  ret i32 %5
}

; Function Attrs: mustprogress nounwind uwtable
define linkonce_odr hidden i64 @_ZNK4llvm3LLT15getElementCountEv(ptr noundef nonnull align 8 dereferenceable(8) %0) #0 comdat align 2 {
  %2 = alloca %"class.llvm::ElementCount", align 4
  %3 = alloca ptr, align 8
  store ptr %0, ptr %3, align 8
  %4 = load ptr, ptr %3, align 8
  %5 = load i64, ptr %4, align 8
  %6 = lshr i64 %5, 1
  %7 = and i64 %6, 1
  %8 = icmp ne i64 %7, 0
  br i1 %8, label %9, label %11

9:                                                ; preds = %1
  %10 = call noundef i64 @_ZNK4llvm3LLT13getFieldValueEPKi(ptr noundef nonnull align 8 dereferenceable(8) %4, ptr noundef @_ZN4llvm3LLT30PointerVectorElementsFieldInfoE)
  br label %13

11:                                               ; preds = %1
  %12 = call noundef i64 @_ZNK4llvm3LLT13getFieldValueEPKi(ptr noundef nonnull align 8 dereferenceable(8) %4, ptr noundef @_ZN4llvm3LLT23VectorElementsFieldInfoE)
  br label %13

13:                                               ; preds = %11, %9
  %14 = phi i64 [ %10, %9 ], [ %12, %11 ]
  %15 = trunc i64 %14 to i32
  %16 = call noundef zeroext i1 @_ZNK4llvm3LLT10isScalableEv(ptr noundef nonnull align 8 dereferenceable(8) %4)
  %17 = call i64 @_ZN4llvm12ElementCount3getEjb(i32 noundef %15, i1 noundef zeroext %16)
  %18 = trunc i64 %17 to i40
  store i40 %18, ptr %2, align 4
  %19 = load i64, ptr %2, align 4
  ret i64 %19
}

; Function Attrs: mustprogress nounwind uwtable
define linkonce_odr hidden { i64, i8 } @_ZN4llvm8TypeSize8getFixedEm(i64 noundef %0) #0 comdat align 2 {
  %2 = alloca %"class.llvm::TypeSize", align 8
  %3 = alloca i64, align 8
  store i64 %0, ptr %3, align 8
  %4 = load i64, ptr %3, align 8
  call void @_ZN4llvm8TypeSizeC2Emb(ptr noundef nonnull align 8 dereferenceable(9) %2, i64 noundef %4, i1 noundef zeroext false)
  %5 = load { i64, i8 }, ptr %2, align 8
  ret { i64, i8 } %5
}

; Function Attrs: mustprogress nounwind uwtable
define linkonce_odr hidden noundef i32 @_ZNK4llvm3LLT19getScalarSizeInBitsEv(ptr noundef nonnull align 8 dereferenceable(8) %0) #0 comdat align 2 {
  %2 = alloca i32, align 4
  %3 = alloca ptr, align 8
  store ptr %0, ptr %3, align 8
  %4 = load ptr, ptr %3, align 8
  %5 = load i64, ptr %4, align 8
  %6 = and i64 %5, 1
  %7 = icmp ne i64 %6, 0
  br i1 %7, label %8, label %11

8:                                                ; preds = %1
  %9 = call noundef i64 @_ZNK4llvm3LLT13getFieldValueEPKi(ptr noundef nonnull align 8 dereferenceable(8) %4, ptr noundef @_ZN4llvm3LLT19ScalarSizeFieldInfoE)
  %10 = trunc i64 %9 to i32
  store i32 %10, ptr %2, align 4
  br label %30

11:                                               ; preds = %1
  %12 = load i64, ptr %4, align 8
  %13 = lshr i64 %12, 2
  %14 = and i64 %13, 1
  %15 = icmp ne i64 %14, 0
  br i1 %15, label %16, label %27

16:                                               ; preds = %11
  %17 = load i64, ptr %4, align 8
  %18 = lshr i64 %17, 1
  %19 = and i64 %18, 1
  %20 = icmp ne i64 %19, 0
  br i1 %20, label %24, label %21

21:                                               ; preds = %16
  %22 = call noundef i64 @_ZNK4llvm3LLT13getFieldValueEPKi(ptr noundef nonnull align 8 dereferenceable(8) %4, ptr noundef @_ZN4llvm3LLT19VectorSizeFieldInfoE)
  %23 = trunc i64 %22 to i32
  store i32 %23, ptr %2, align 4
  br label %30

24:                                               ; preds = %16
  %25 = call noundef i64 @_ZNK4llvm3LLT13getFieldValueEPKi(ptr noundef nonnull align 8 dereferenceable(8) %4, ptr noundef @_ZN4llvm3LLT26PointerVectorSizeFieldInfoE)
  %26 = trunc i64 %25 to i32
  store i32 %26, ptr %2, align 4
  br label %30

27:                                               ; preds = %11
  %28 = call noundef i64 @_ZNK4llvm3LLT13getFieldValueEPKi(ptr noundef nonnull align 8 dereferenceable(8) %4, ptr noundef @_ZN4llvm3LLT20PointerSizeFieldInfoE)
  %29 = trunc i64 %28 to i32
  store i32 %29, ptr %2, align 4
  br label %30

30:                                               ; preds = %27, %24, %21, %8
  %31 = load i32, ptr %2, align 4
  ret i32 %31
}

; Function Attrs: mustprogress nounwind uwtable
define linkonce_odr hidden noundef zeroext i1 @_ZNK4llvm3LLT9isPointerEv(ptr noundef nonnull align 8 dereferenceable(8) %0) #0 comdat align 2 {
  %2 = alloca ptr, align 8
  store ptr %0, ptr %2, align 8
  %3 = load ptr, ptr %2, align 8
  %4 = call noundef zeroext i1 @_ZNK4llvm3LLT7isValidEv(ptr noundef nonnull align 8 dereferenceable(8) %3)
  br i1 %4, label %5, label %16

5:                                                ; preds = %1
  %6 = load i64, ptr %3, align 8
  %7 = lshr i64 %6, 1
  %8 = and i64 %7, 1
  %9 = icmp ne i64 %8, 0
  br i1 %9, label %10, label %16

10:                                               ; preds = %5
  %11 = load i64, ptr %3, align 8
  %12 = lshr i64 %11, 2
  %13 = and i64 %12, 1
  %14 = icmp ne i64 %13, 0
  %15 = xor i1 %14, true
  br label %16

16:                                               ; preds = %10, %5, %1
  %17 = phi i1 [ false, %5 ], [ false, %1 ], [ %15, %10 ]
  ret i1 %17
}

; Function Attrs: mustprogress nounwind uwtable
define linkonce_odr hidden { i64, i8 } @_ZNK4llvm3LLT13getSizeInBitsEv(ptr noundef nonnull align 8 dereferenceable(8) %0) #0 comdat align 2 {
  %2 = alloca %"class.llvm::TypeSize", align 8
  %3 = alloca ptr, align 8
  %4 = alloca { i64, i8 }, align 8
  %5 = alloca %"class.llvm::ElementCount", align 4
  store ptr %0, ptr %3, align 8
  %6 = load ptr, ptr %3, align 8
  %7 = call noundef zeroext i1 @_ZNK4llvm3LLT9isPointerEv(ptr noundef nonnull align 8 dereferenceable(8) %6)
  br i1 %7, label %10, label %8

8:                                                ; preds = %1
  %9 = call noundef zeroext i1 @_ZNK4llvm3LLT8isScalarEv(ptr noundef nonnull align 8 dereferenceable(8) %6)
  br i1 %9, label %10, label %14

10:                                               ; preds = %8, %1
  %11 = call noundef i32 @_ZNK4llvm3LLT19getScalarSizeInBitsEv(ptr noundef nonnull align 8 dereferenceable(8) %6)
  %12 = zext i32 %11 to i64
  %13 = call { i64, i8 } @_ZN4llvm8TypeSize8getFixedEm(i64 noundef %12)
  store { i64, i8 } %13, ptr %4, align 8
  call void @llvm.memcpy.p0.p0.i64(ptr align 8 %2, ptr align 8 %4, i64 9, i1 false)
  br label %22

14:                                               ; preds = %8
  %15 = call i64 @_ZNK4llvm3LLT15getElementCountEv(ptr noundef nonnull align 8 dereferenceable(8) %6)
  %16 = trunc i64 %15 to i40
  store i40 %16, ptr %5, align 4
  %17 = call noundef i32 @_ZNK4llvm3LLT19getScalarSizeInBitsEv(ptr noundef nonnull align 8 dereferenceable(8) %6)
  %18 = call noundef i32 @_ZNK4llvm7details23FixedOrScalableQuantityINS_12ElementCountEjE16getKnownMinValueEv(ptr noundef nonnull align 4 dereferenceable(5) %5)
  %19 = mul i32 %17, %18
  %20 = zext i32 %19 to i64
  %21 = call noundef zeroext i1 @_ZNK4llvm7details23FixedOrScalableQuantityINS_12ElementCountEjE10isScalableEv(ptr noundef nonnull align 4 dereferenceable(5) %5)
  call void @_ZN4llvm8TypeSizeC2Emb(ptr noundef nonnull align 8 dereferenceable(9) %2, i64 noundef %20, i1 noundef zeroext %21)
  br label %22

22:                                               ; preds = %14, %10
  %23 = load { i64, i8 }, ptr %2, align 8
  ret { i64, i8 } %23
}

; Function Attrs: mustprogress nounwind uwtable
define linkonce_odr hidden noundef zeroext i1 @_ZNK4llvm3LLT8isScalarEv(ptr noundef nonnull align 8 dereferenceable(8) %0) #0 comdat align 2 {
  %2 = alloca ptr, align 8
  store ptr %0, ptr %2, align 8
  %3 = load ptr, ptr %2, align 8
  %4 = load i64, ptr %3, align 8
  %5 = and i64 %4, 1
  %6 = icmp ne i64 %5, 0
  ret i1 %6
}

; Function Attrs: mustprogress nounwind uwtable
define internal noundef ptr @_ZL18getFloatTypeForLLTRN4llvm11LLVMContextENS_3LLTE(ptr noundef nonnull align 8 dereferenceable(8) %0, i64 %1) #0 {
  %3 = alloca ptr, align 8
  %4 = alloca %"class.llvm::LLT", align 8
  %5 = alloca ptr, align 8
  %6 = alloca %"class.llvm::TypeSize", align 8
  %7 = alloca { i64, i8 }, align 8
  %8 = getelementptr inbounds nuw %"class.llvm::LLT", ptr %4, i32 0, i32 0
  store i64 %1, ptr %8, align 8
  store ptr %0, ptr %5, align 8
  %9 = call noundef zeroext i1 @_ZNK4llvm3LLT8isScalarEv(ptr noundef nonnull align 8 dereferenceable(8) %4)
  br i1 %9, label %11, label %10

10:                                               ; preds = %2
  store ptr null, ptr %3, align 8
  br label %30

11:                                               ; preds = %2
  %12 = call { i64, i8 } @_ZNK4llvm3LLT13getSizeInBitsEv(ptr noundef nonnull align 8 dereferenceable(8) %4)
  store { i64, i8 } %12, ptr %7, align 8
  call void @llvm.memcpy.p0.p0.i64(ptr align 8 %6, ptr align 8 %7, i64 9, i1 false)
  %13 = call noundef i64 @_ZNK4llvm8TypeSizecvmEv(ptr noundef nonnull align 8 dereferenceable(9) %6)
  switch i64 %13, label %29 [
    i64 16, label %14
    i64 32, label %17
    i64 64, label %20
    i64 80, label %23
    i64 128, label %26
  ]

14:                                               ; preds = %11
  %15 = load ptr, ptr %5, align 8
  %16 = call noundef ptr @_ZN4llvm4Type9getHalfTyERNS_11LLVMContextE(ptr noundef nonnull align 8 dereferenceable(8) %15)
  store ptr %16, ptr %3, align 8
  br label %30

17:                                               ; preds = %11
  %18 = load ptr, ptr %5, align 8
  %19 = call noundef ptr @_ZN4llvm4Type10getFloatTyERNS_11LLVMContextE(ptr noundef nonnull align 8 dereferenceable(8) %18)
  store ptr %19, ptr %3, align 8
  br label %30

20:                                               ; preds = %11
  %21 = load ptr, ptr %5, align 8
  %22 = call noundef ptr @_ZN4llvm4Type11getDoubleTyERNS_11LLVMContextE(ptr noundef nonnull align 8 dereferenceable(8) %21)
  store ptr %22, ptr %3, align 8
  br label %30

23:                                               ; preds = %11
  %24 = load ptr, ptr %5, align 8
  %25 = call noundef ptr @_ZN4llvm4Type13getX86_FP80TyERNS_11LLVMContextE(ptr noundef nonnull align 8 dereferenceable(8) %24)
  store ptr %25, ptr %3, align 8
  br label %30

26:                                               ; preds = %11
  %27 = load ptr, ptr %5, align 8
  %28 = call noundef ptr @_ZN4llvm4Type10getFP128TyERNS_11LLVMContextE(ptr noundef nonnull align 8 dereferenceable(8) %27)
  store ptr %28, ptr %3, align 8
  br label %30

29:                                               ; preds = %11
  store ptr null, ptr %3, align 8
  br label %30

30:                                               ; preds = %29, %26, %23, %20, %17, %14, %10
  %31 = load ptr, ptr %3, align 8
  ret ptr %31
}