; Function Attrs: mustprogress nounwind uwtable
define internal fastcc noundef ptr @_ZL18getFloatTypeForLLTRN4llvm11LLVMContextENS_3LLTE(ptr noundef nonnull align 8 dereferenceable(8) %0, i64 %1) unnamed_addr #0 {
  %3 = alloca %"class.llvm::TypeSize", align 8
  %4 = and i64 %1, 1
  %.not = icmp eq i64 %4, 0
  br i1 %.not, label %19, label %_ZNK4llvm3LLT13getSizeInBitsEv.exit

_ZNK4llvm3LLT13getSizeInBitsEv.exit:              ; preds = %2
  %5 = lshr i64 %1, 3
  %.sroa.012.0.i = and i64 %5, 4294967295
  store i64 %.sroa.012.0.i, ptr %3, align 8
  %.sroa.2.0..sroa_idx = getelementptr inbounds i8, ptr %3, i64 8
  store i8 0, ptr %.sroa.2.0..sroa_idx, align 8
  %6 = call noundef i64 @_ZNK4llvm8TypeSizecvmEv(ptr noundef nonnull align 8 dereferenceable(9) %3) #18
  %7 = add i64 %6, -16
  %8 = call i64 @llvm.fshl.i64(i64 %7, i64 %7, i64 60)
  switch i64 %8, label %19 [
    i64 0, label %9
    i64 1, label %11
    i64 3, label %13
    i64 4, label %15
    i64 7, label %17
  ]

9:                                                ; preds = %_ZNK4llvm3LLT13getSizeInBitsEv.exit
  %10 = call noundef ptr @_ZN4llvm4Type9getHalfTyERNS_11LLVMContextE(ptr noundef nonnull align 8 dereferenceable(8) %0) #18
  br label %19

11:                                               ; preds = %_ZNK4llvm3LLT13getSizeInBitsEv.exit
  %12 = call noundef ptr @_ZN4llvm4Type10getFloatTyERNS_11LLVMContextE(ptr noundef nonnull align 8 dereferenceable(8) %0) #18
  br label %19

13:                                               ; preds = %_ZNK4llvm3LLT13getSizeInBitsEv.exit
  %14 = call noundef ptr @_ZN4llvm4Type11getDoubleTyERNS_11LLVMContextE(ptr noundef nonnull align 8 dereferenceable(8) %0) #18
  br label %19

15:                                               ; preds = %_ZNK4llvm3LLT13getSizeInBitsEv.exit
  %16 = call noundef ptr @_ZN4llvm4Type13getX86_FP80TyERNS_11LLVMContextE(ptr noundef nonnull align 8 dereferenceable(8) %0) #18
  br label %19

17:                                               ; preds = %_ZNK4llvm3LLT13getSizeInBitsEv.exit
  %18 = call noundef ptr @_ZN4llvm4Type10getFP128TyERNS_11LLVMContextE(ptr noundef nonnull align 8 dereferenceable(8) %0) #18
  br label %19

19:                                               ; preds = %_ZNK4llvm3LLT13getSizeInBitsEv.exit, %2, %17, %15, %13, %11, %9
  %.0 = phi ptr [ %18, %17 ], [ %16, %15 ], [ %14, %13 ], [ %12, %11 ], [ %10, %9 ], [ null, %2 ], [ null, %_ZNK4llvm3LLT13getSizeInBitsEv.exit ]
  ret ptr %.0
}